target datalayout = "e-m:e-p270:32:32-p271:32:32-p272:64:64-i64:64-i128:128-f80:128-n8:16:32:64-S128"
target triple = "x86_64-pc-linux-gnu"

%struct.slurm_preempt_ops = type { ptr, ptr, ptr }
%struct.preempt_candidates_t = type { ptr, ptr }
%struct.job_record = type { i32, ptr, ptr, ptr, ptr, i16, i32, i32, i32, ptr, i32, ptr, ptr, i16, ptr, double, i64, ptr, ptr, ptr, ptr, ptr, ptr, i32, ptr, i32, i64, i64, i32, i32, ptr, i16, i64, i64, i8, i32, ptr, ptr, ptr, ptr, ptr, ptr, ptr, ptr, i32, ptr, ptr, i32, ptr, i32, ptr, i32, ptr, i32, ptr, ptr, ptr, ptr, ptr, ptr, i32, i16, i64, ptr, ptr, ptr, ptr, %struct.acct_policy_limit_set_t, i16, ptr, ptr, ptr, ptr, ptr, i32, ptr, ptr, ptr, ptr, ptr, i32, i32, ptr, ptr, ptr, i16, ptr, ptr, i8, ptr, ptr, i64, i64, i8, i32, i32, i8, i32, ptr, i32, i64, i32, ptr, ptr, ptr, i8, i16, i64, i32, ptr, ptr, ptr, ptr, ptr, i16, i32, ptr, ptr, ptr, ptr, i32, ptr, i32, i16, i64, ptr, i32, i32, ptr, i64, ptr, ptr, i64, i32, i32, i64, i32, i32, ptr, ptr, ptr, ptr, ptr, ptr, ptr, ptr, ptr, ptr, ptr, ptr, i32, ptr, i16, i16, i16, i16, ptr, i32, i32, i8, i64 }
%struct.acct_policy_limit_set_t = type { i16, i16, ptr }
%struct.part_record = type { i32, ptr, ptr, ptr, ptr, ptr, ptr, i32, ptr, ptr, ptr, ptr, ptr, i32, i64, i32, ptr, ptr, ptr, ptr, ptr, i32, i32, ptr, i32, i32, i64, i32, i32, i16, i32, i32, i32, i32, ptr, ptr, ptr, ptr, ptr, double, i16, i16, i16, i16, ptr, ptr, i16, i16, i32, i16, i32, i32, i32, i32, i16, ptr, ptr, ptr }
%struct.job_details_t = type { i32, ptr, i64, ptr, i32, ptr, i64, ptr, i16, i16, ptr, i16, i32, i32, i32, i16, ptr, i16, ptr, ptr, ptr, i16, ptr, ptr, ptr, ptr, i32, ptr, ptr, ptr, ptr, ptr, i32, i32, i32, ptr, ptr, i16, i32, i32, i32, i32, i32, i32, i16, i16, i32, i8, i8, i32, i32, i64, i64, i16, i32, ptr, ptr, i8, ptr, i32, ptr, i64, ptr, ptr, i16, i16, i16, i8, ptr, ptr, ptr, ptr, ptr, ptr, i64, i32, i32, i8, ptr, i16, ptr, ptr, i16 }

@ops = internal global %struct.slurm_preempt_ops zeroinitializer, align 8
@min_exempt_priority = internal global i32 -2, align 4

; Function Attrs: nounwind uwtable
define internal i32 @_is_job_preempt_exempt_internal(ptr noundef %0, ptr noundef %1) #0 {
  %3 = alloca i32, align 4
  %4 = alloca ptr, align 8
  %5 = alloca ptr, align 8
  %6 = alloca ptr, align 8
  %7 = alloca ptr, align 8
  %8 = alloca i32, align 4
  store ptr %0, ptr %4, align 8
  store ptr %1, ptr %5, align 8
  call void @llvm.lifetime.start.p0(i64 8, ptr %6) #6
  %9 = load ptr, ptr %4, align 8
  store ptr %9, ptr %6, align 8
  call void @llvm.lifetime.start.p0(i64 8, ptr %7) #6
  %10 = load ptr, ptr %5, align 8
  store ptr %10, ptr %7, align 8
  %11 = load ptr, ptr %6, align 8
  %12 = load ptr, ptr %7, align 8
  %13 = call zeroext i1 @job_borrow_from_resv_check(ptr noundef %11, ptr noundef %12)
  br i1 %13, label %14, label %15

14:                                               ; preds = %2
  br label %22

15:                                               ; preds = %2
  %16 = load ptr, ptr getelementptr inbounds nuw (%struct.slurm_preempt_ops, ptr @ops, i32 0, i32 1), align 8
  %17 = load ptr, ptr %6, align 8
  %18 = load ptr, ptr %7, align 8
  %19 = call zeroext i1 %16(ptr noundef %17, ptr noundef %18)
  br i1 %19, label %21, label %20

20:                                               ; preds = %15
  store i32 1, ptr %3, align 4
  store i32 1, ptr %8, align 4
  br label %50

21:                                               ; preds = %15
  br label %22

22:                                               ; preds = %21, %14
  %23 = load i32, ptr @min_exempt_priority, align 4
  %24 = load ptr, ptr %6, align 8
  %25 = getelementptr inbounds nuw %struct.job_record, ptr %24, i32 0, i32 97
  %26 = load i32, ptr %25, align 8
  %27 = icmp ult i32 %23, %26
  br i1 %27, label %28, label %29

28:                                               ; preds = %22
  store i32 1, ptr %3, align 4
  store i32 1, ptr %8, align 4
  br label %50

29:                                               ; preds = %22
  %30 = load ptr, ptr %7, align 8
  %31 = getelementptr inbounds nuw %struct.job_record, ptr %30, i32 0, i32 30
  %32 = load ptr, ptr %31, align 8
  %33 = icmp ne ptr %32, null
  br i1 %33, label %34, label %45

34:                                               ; preds = %29
  %35 = load ptr, ptr %7, align 8
  %36 = getelementptr inbounds nuw %struct.job_record, ptr %35, i32 0, i32 30
  %37 = load ptr, ptr %36, align 8
  %38 = getelementptr inbounds nuw %struct.job_details_t, ptr %37, i32 0, i32 26
  %39 = load i32, ptr %38, align 8
  %40 = load ptr, ptr %6, align 8
  %41 = getelementptr inbounds nuw %struct.job_record, ptr %40, i32 0, i32 53
  %42 = load i32, ptr %41, align 8
  %43 = icmp eq i32 %39, %42
  br i1 %43, label %44, label %45

44:                                               ; preds = %34
  store i32 1, ptr %3, align 4
  store i32 1, ptr %8, align 4
  br label %50

45:                                               ; preds = %34, %29
  %46 = load ptr, ptr %6, align 8
  %47 = call zeroext i1 @acct_policy_is_job_preempt_exempt(ptr noundef %46)
  br i1 %47, label %48, label %49

48:                                               ; preds = %45
  store i32 1, ptr %3, align 4
  store i32 1, ptr %8, align 4
  br label %50

49:                                               ; preds = %45
  store i32 0, ptr %3, align 4
  store i32 1, ptr %8, align 4
  br label %50

50:                                               ; preds = %49, %48, %44, %28, %20
  call void @llvm.lifetime.end.p0(i64 8, ptr %7) #6
  call void @llvm.lifetime.end.p0(i64 8, ptr %6) #6
  %51 = load i32, ptr %3, align 4
  ret i32 %51
}

; Function Attrs: nounwind uwtable
define internal zeroext i1 @_is_job_preempt_exempt(ptr noundef %0, ptr noundef %1) #0 {
  %3 = alloca i1, align 1
  %4 = alloca ptr, align 8
  %5 = alloca ptr, align 8
  store ptr %0, ptr %4, align 8
  store ptr %1, ptr %5, align 8
  %6 = load ptr, ptr %4, align 8
  %7 = getelementptr inbounds nuw %struct.job_record, ptr %6, i32 0, i32 52
  %8 = load ptr, ptr %7, align 8
  %9 = icmp ne ptr %8, null
  br i1 %9, label %15, label %10

10:                                               ; preds = %2
  %11 = load ptr, ptr %4, align 8
  %12 = load ptr, ptr %5, align 8
  %13 = call i32 @_is_job_preempt_exempt_internal(ptr noundef %11, ptr noundef %12)
  %14 = icmp ne i32 %13, 0
  store i1 %14, ptr %3, align 1
  br label %24

15:                                               ; preds = %2
  %16 = load ptr, ptr %4, align 8
  %17 = getelementptr inbounds nuw %struct.job_record, ptr %16, i32 0, i32 52
  %18 = load ptr, ptr %17, align 8
  %19 = load ptr, ptr %5, align 8
  %20 = call ptr @list_find_first(ptr noundef %18, ptr noundef @_is_job_preempt_exempt_internal, ptr noundef %19)
  %21 = icmp ne ptr %20, null
  %22 = select i1 %21, i32 1, i32 0
  %23 = icmp ne i32 %22, 0
  store i1 %23, ptr %3, align 1
  br label %24

24:                                               ; preds = %15, %10
  %25 = load i1, ptr %3, align 1
  ret i1 %25
}

; Function Attrs: nounwind uwtable
define internal i32 @_add_preemptable_job(ptr noundef %0, ptr noundef %1) #0 {
  %3 = alloca i32, align 4
  %4 = alloca ptr, align 8
  %5 = alloca ptr, align 8
  %6 = alloca ptr, align 8
  %7 = alloca ptr, align 8
  %8 = alloca ptr, align 8
  %9 = alloca i32, align 4
  store ptr %0, ptr %4, align 8
  store ptr %1, ptr %5, align 8
  call void @llvm.lifetime.start.p0(i64 8, ptr %6) #6
  %10 = load ptr, ptr %4, align 8
  store ptr %10, ptr %6, align 8
  call void @llvm.lifetime.start.p0(i64 8, ptr %7) #6
  %11 = load ptr, ptr %5, align 8
  store ptr %11, ptr %7, align 8
  call void @llvm.lifetime.start.p0(i64 8, ptr %8) #6
  %12 = load ptr, ptr %7, align 8
  %13 = getelementptr inbounds nuw %struct.preempt_candidates_t, ptr %12, i32 0, i32 0
  %14 = load ptr, ptr %13, align 8
  store ptr %14, ptr %8, align 8
  %15 = load ptr, ptr %6, align 8
  %16 = getelementptr inbounds nuw %struct.job_record, ptr %15, i32 0, i32 49
  %17 = load i32, ptr %16, align 8
  %18 = icmp ne i32 %17, 0
  br i1 %18, label %19, label %25

19:                                               ; preds = %2
  %20 = load ptr, ptr %6, align 8
  %21 = getelementptr inbounds nuw %struct.job_record, ptr %20, i32 0, i32 52
  %22 = load ptr, ptr %21, align 8
  %23 = icmp ne ptr %22, null
  br i1 %23, label %25, label %24

24:                                               ; preds = %19
  store i32 0, ptr %3, align 4
  store i32 1, ptr %9, align 4
  br label %56

25:                                               ; preds = %19, %2
  %26 = load ptr, ptr %6, align 8
  %27 = load ptr, ptr %8, align 8
  %28 = call zeroext i1 @_is_job_preempt_exempt(ptr noundef %26, ptr noundef %27)
  br i1 %28, label %29, label %30

29:                                               ; preds = %25
  store i32 0, ptr %3, align 4
  store i32 1, ptr %9, align 4
  br label %56

30:                                               ; preds = %25
  %31 = load ptr, ptr %8, align 8
  %32 = getelementptr inbounds nuw %struct.job_record, ptr %31, i32 0, i32 89
  %33 = load ptr, ptr %32, align 8
  %34 = getelementptr inbounds nuw %struct.part_record, ptr %33, i32 0, i32 35
  %35 = load ptr, ptr %34, align 8
  %36 = load ptr, ptr %8, align 8
  %37 = getelementptr inbounds nuw %struct.job_record, ptr %36, i32 0, i32 64
  %38 = load ptr, ptr %37, align 8
  %39 = load ptr, ptr %6, align 8
  %40 = call zeroext i1 @job_overlap_and_running(ptr noundef %35, ptr noundef %38, ptr noundef %39)
  br i1 %40, label %42, label %41

41:                                               ; preds = %30
  store i32 0, ptr %3, align 4
  store i32 1, ptr %9, align 4
  br label %56

42:                                               ; preds = %30
  %43 = load ptr, ptr %7, align 8
  %44 = getelementptr inbounds nuw %struct.preempt_candidates_t, ptr %43, i32 0, i32 1
  %45 = load ptr, ptr %44, align 8
  %46 = icmp ne ptr %45, null
  br i1 %46, label %51, label %47

47:                                               ; preds = %42
  %48 = call ptr @list_create(ptr noundef null)
  %49 = load ptr, ptr %7, align 8
  %50 = getelementptr inbounds nuw %struct.preempt_candidates_t, ptr %49, i32 0, i32 1
  store ptr %48, ptr %50, align 8
  br label %51

51:                                               ; preds = %47, %42
  %52 = load ptr, ptr %7, align 8
  %53 = getelementptr inbounds nuw %struct.preempt_candidates_t, ptr %52, i32 0, i32 1
  %54 = load ptr, ptr %53, align 8
  %55 = load ptr, ptr %6, align 8
  call void @list_append(ptr noundef %54, ptr noundef %55)
  store i32 0, ptr %3, align 4
  store i32 1, ptr %9, align 4
  br label %56

56:                                               ; preds = %51, %41, %29, %24
  call void @llvm.lifetime.end.p0(i64 8, ptr %8) #6
  call void @llvm.lifetime.end.p0(i64 8, ptr %7) #6
  call void @llvm.lifetime.end.p0(i64 8, ptr %6) #6
  %57 = load i32, ptr %3, align 4
  ret i32 %57
}