; Function Attrs: nounwind uwtable
define internal noundef i32 @_add_preemptable_job(ptr noundef %0, ptr noundef captures(none) %1) #0 {
  %3 = load ptr, ptr %1, align 8
  %4 = getelementptr inbounds nuw i8, ptr %0, i64 360
  %5 = load i32, ptr %4, align 8
  %.not = icmp eq i32 %5, 0
  %.phi.trans.insert = getelementptr inbounds nuw i8, ptr %0, i64 384
  %.pre = load ptr, ptr %.phi.trans.insert, align 8
  %.not.i = icmp eq ptr %.pre, null
  br i1 %.not, label %7, label %6

6:                                                ; preds = %2
  br i1 %.not.i, label %_is_job_preempt_exempt.exit.thread, label %.thread

7:                                                ; preds = %2
  br i1 %.not.i, label %8, label %.thread

8:                                                ; preds = %7
  %9 = tail call zeroext i1 @job_borrow_from_resv_check(ptr noundef nonnull %0, ptr noundef %3) #8
  br i1 %9, label %13, label %10

10:                                               ; preds = %8
  %11 = load ptr, ptr getelementptr inbounds nuw (i8, ptr @ops, i64 8), align 8
  %12 = tail call zeroext i1 %11(ptr noundef nonnull %0, ptr noundef %3) #8
  br i1 %12, label %13, label %_is_job_preempt_exempt.exit.thread

13:                                               ; preds = %10, %8
  %14 = load i32, ptr @min_exempt_priority, align 4
  %15 = getelementptr inbounds nuw i8, ptr %0, i64 720
  %16 = load i32, ptr %15, align 8
  %17 = icmp ult i32 %14, %16
  br i1 %17, label %_is_job_preempt_exempt.exit.thread, label %18

18:                                               ; preds = %13
  %19 = getelementptr inbounds nuw i8, ptr %3, i64 216
  %20 = load ptr, ptr %19, align 8
  %.not.i.i = icmp eq ptr %20, null
  br i1 %.not.i.i, label %_is_job_preempt_exempt.exit, label %21

21:                                               ; preds = %18
  %22 = getelementptr inbounds nuw i8, ptr %20, i64 184
  %23 = load i32, ptr %22, align 8
  %24 = getelementptr inbounds nuw i8, ptr %0, i64 392
  %25 = load i32, ptr %24, align 8
  %26 = icmp eq i32 %23, %25
  br i1 %26, label %_is_job_preempt_exempt.exit.thread, label %_is_job_preempt_exempt.exit

.thread:                                          ; preds = %6, %7
  %27 = tail call ptr @list_find_first(ptr noundef nonnull %.pre, ptr noundef nonnull @_is_job_preempt_exempt_internal, ptr noundef %3) #8
  %.not17 = icmp eq ptr %27, null
  br i1 %.not17, label %29, label %_is_job_preempt_exempt.exit.thread

_is_job_preempt_exempt.exit:                      ; preds = %18, %21
  %28 = tail call zeroext i1 @acct_policy_is_job_preempt_exempt(ptr noundef nonnull %0) #8
  br i1 %28, label %_is_job_preempt_exempt.exit.thread, label %29

29:                                               ; preds = %.thread, %_is_job_preempt_exempt.exit
  %30 = getelementptr inbounds nuw i8, ptr %3, i64 672
  %31 = load ptr, ptr %30, align 8
  %32 = getelementptr inbounds nuw i8, ptr %31, i64 240
  %33 = load ptr, ptr %32, align 8
  %34 = getelementptr inbounds nuw i8, ptr %3, i64 472
  %35 = load ptr, ptr %34, align 8
  %36 = tail call zeroext i1 @job_overlap_and_running(ptr noundef %33, ptr noundef %35, ptr noundef nonnull %0) #8
  br i1 %36, label %37, label %_is_job_preempt_exempt.exit.thread

37:                                               ; preds = %29
  %38 = getelementptr inbounds nuw i8, ptr %1, i64 8
  %39 = load ptr, ptr %38, align 8
  %.not15 = icmp eq ptr %39, null
  br i1 %.not15, label %40, label %42

40:                                               ; preds = %37
  %41 = tail call ptr @list_create(ptr noundef null) #8
  store ptr %41, ptr %38, align 8
  br label %42

42:                                               ; preds = %40, %37
  %43 = phi ptr [ %41, %40 ], [ %39, %37 ]
  tail call void @list_append(ptr noundef %43, ptr noundef nonnull %0) #8
  br label %_is_job_preempt_exempt.exit.thread

_is_job_preempt_exempt.exit.thread:               ; preds = %21, %13, %10, %.thread, %29, %_is_job_preempt_exempt.exit, %6, %42
  ret i32 0
}